	.text
	.file	"server.c"
	.file	1 "/home/barra/src/R4/echo" "server.c"
	.file	2 "/home/barra/src/R4/echo" "/usr/include/bits/socket_type.h"
	.file	3 "/home/barra/src/R4/echo" "/usr/include/netinet/in.h"
	.file	4 "/home/barra/src/R4/echo" "/usr/include/stdint.h"
	.file	5 "/home/barra/src/R4/echo" "/usr/include/bits/sockaddr.h"
	.file	6 "/home/barra/src/R4/echo" "/usr/include/bits/socket.h"
	.globl	main                    # -- Begin function main
	.p2align	4, 0x90
	.type	main,@function
main:                                   # @main
.Lfunc_begin0:
	.loc	1 83 0                  # server.c:83:0
	.cfi_sections .debug_frame
	.cfi_startproc
	popl	-16777216(%esp)
	subl	$4, %esp
# %bb.0:
	pushl	%ebp
	.cfi_def_cfa_offset 8
	.cfi_offset %ebp, -8
	movl	%esp, %ebp
	.cfi_def_cfa_register %ebp
	pushl	%esi
	subl	$148, %esp
	.cfi_offset %esi, -12
	movl	12(%ebp), %eax
	movl	8(%ebp), %ecx
	movl	$0, -8(%ebp)
.Ltmp0:
	.loc	1 88 10 prologue_end    # server.c:88:10
	cmpl	$2, 8(%ebp)
.Ltmp1:
	.loc	1 88 5 is_stmt 0        # server.c:88:5
	movl	%eax, -76(%ebp)         # 4-byte Spill
	movl	%ecx, -80(%ebp)         # 4-byte Spill
	je	.LBB0_2
# %bb.1:
.Ltmp2:
	.loc	1 89 37 is_stmt 1       # server.c:89:37
	movl	12(%ebp), %eax
	movl	(%eax), %eax
	.loc	1 89 3 is_stmt 0        # server.c:89:3
	leal	.L.str, %ecx
	movl	%ecx, (%esp)
	movl	%eax, 4(%esp)
	calll	printf
	.loc	1 90 3 is_stmt 1        # server.c:90:3
	movl	$4294967295, %ecx       # imm = 0xFFFFFFFF
	movl	%eax, -84(%ebp)         # 4-byte Spill
	movl	%ecx, %eax
	addl	$148, %esp
	popl	%esi
	popl	%ebp
	.cfi_def_cfa %esp, 4
	addl	$4, %esp
	pushl	-16777216(%esp)
	retl
.Ltmp3:
.LBB0_2:
	.cfi_def_cfa %ebp, 8
	.loc	1 93 14                 # server.c:93:14
	movl	12(%ebp), %eax
	movl	4(%eax), %eax
	.loc	1 93 9 is_stmt 0        # server.c:93:9
	movl	%eax, (%esp)
	calll	atoi
	.loc	1 93 7                  # server.c:93:7
	movl	%eax, -12(%ebp)
	.loc	1 94 2 is_stmt 1        # server.c:94:2
	leal	.L.str.1, %eax
	movl	%eax, (%esp)
	calll	printf
	.loc	1 95 2                  # server.c:95:2
	leal	.L.str.2, %ecx
	movl	%ecx, (%esp)
	leal	sbuf, %ecx
	movl	%ecx, 4(%esp)
	leal	fptr, %ecx
	movl	%ecx, 8(%esp)
	movl	%eax, -88(%ebp)         # 4-byte Spill
	calll	printf
.Ltmp4:
	.loc	1 100 18                # server.c:100:18
	movl	$2, (%esp)
	movl	$1, 4(%esp)
	movl	$6, 8(%esp)
	movl	%eax, -92(%ebp)         # 4-byte Spill
	calll	socket
	.loc	1 100 16 is_stmt 0      # server.c:100:16
	movl	%eax, -16(%ebp)
	.loc	1 100 61                # server.c:100:61
	cmpl	$0, %eax
.Ltmp5:
	.loc	1 100 5                 # server.c:100:5
	jge	.LBB0_4
# %bb.3:
.Ltmp6:
	.loc	1 101 3 is_stmt 1       # server.c:101:3
	leal	.L.str.3, %eax
	movl	%eax, (%esp)
	calll	do_error
.Ltmp7:
.LBB0_4:
	.loc	1 0 3 is_stmt 0         # server.c:0:3
	xorl	%eax, %eax
	.loc	1 104 9 is_stmt 1       # server.c:104:9
	leal	-32(%ebp), %ecx
	.loc	1 104 2 is_stmt 0       # server.c:104:2
	movl	%ecx, (%esp)
	movl	$0, 4(%esp)
	movl	$16, 8(%esp)
	movl	%eax, -96(%ebp)         # 4-byte Spill
	calll	memset
	xorl	%ecx, %ecx
	.loc	1 105 23 is_stmt 1      # server.c:105:23
	movw	$2, -32(%ebp)
	.loc	1 106 30                # server.c:106:30
	movl	$0, (%esp)
	movl	%eax, -100(%ebp)        # 4-byte Spill
	movl	%ecx, -104(%ebp)        # 4-byte Spill
	calll	htonl
	.loc	1 106 28 is_stmt 0      # server.c:106:28
	movl	%eax, -28(%ebp)
	.loc	1 107 29 is_stmt 1      # server.c:107:29
	movl	-12(%ebp), %eax
	movw	%ax, %dx
	.loc	1 107 23 is_stmt 0      # server.c:107:23
	movzwl	%dx, %eax
	movl	%eax, (%esp)
	calll	htons
	.loc	1 107 21                # server.c:107:21
	movw	%ax, -30(%ebp)
.Ltmp8:
	.loc	1 109 11 is_stmt 1      # server.c:109:11
	movl	-16(%ebp), %ecx
	.loc	1 109 22 is_stmt 0      # server.c:109:22
	leal	-32(%ebp), %esi
	.loc	1 109 6                 # server.c:109:6
	movl	%ecx, (%esp)
	movl	%esi, 4(%esp)
	movl	$16, 8(%esp)
	calll	bind
	.loc	1 109 72                # server.c:109:72
	cmpl	$0, %eax
.Ltmp9:
	.loc	1 109 6                 # server.c:109:6
	jge	.LBB0_6
# %bb.5:
.Ltmp10:
	.loc	1 110 3 is_stmt 1       # server.c:110:3
	leal	.L.str.4, %eax
	movl	%eax, (%esp)
	calll	do_error
.Ltmp11:
.LBB0_6:
	.loc	1 113 13                # server.c:113:13
	movl	-16(%ebp), %eax
	.loc	1 113 6 is_stmt 0       # server.c:113:6
	movl	%eax, (%esp)
	movl	$5, 4(%esp)
	calll	listen
	.loc	1 113 36                # server.c:113:36
	cmpl	$0, %eax
.Ltmp12:
	.loc	1 113 6                 # server.c:113:6
	jge	.LBB0_8
# %bb.7:
.Ltmp13:
	.loc	1 114 3 is_stmt 1       # server.c:114:3
	leal	.L.str.5, %eax
	movl	%eax, (%esp)
	calll	do_error
.Ltmp14:
.LBB0_8:
	.loc	1 117 2                 # server.c:117:2
	jmp	.LBB0_9
.LBB0_9:                                # =>This Inner Loop Header: Depth=1
.Ltmp15:
	.loc	1 119 16                # server.c:119:16
	movl	$16, -52(%ebp)
	.loc	1 123 24                # server.c:123:24
	movl	-16(%ebp), %eax
	.loc	1 123 35 is_stmt 0      # server.c:123:35
	leal	-48(%ebp), %ecx
.Ltmp16:
	#DEBUG_VALUE: client_addr <- [$ecx+0]
	.loc	1 123 17                # server.c:123:17
	movl	%eax, (%esp)
	movl	%ecx, 4(%esp)
	leal	-52(%ebp), %eax
.Ltmp17:
	#DEBUG_VALUE: addr_len <- [$eax+0]
	movl	%eax, 8(%esp)
	calll	accept
.Ltmp18:
	.loc	1 123 15                # server.c:123:15
	movl	%eax, -72(%ebp)
.Ltmp19:
	.loc	1 124 20 is_stmt 1      # server.c:124:20
	cmpl	$0, -72(%ebp)
.Ltmp20:
	.loc	1 124 8 is_stmt 0       # server.c:124:8
	jge	.LBB0_11
# %bb.10:                               #   in Loop: Header=BB0_9 Depth=1
.Ltmp21:
	.loc	1 125 4 is_stmt 1       # server.c:125:4
	leal	.L.str.6, %eax
	movl	%eax, (%esp)
	calll	do_error
.Ltmp22:
.LBB0_11:                               #   in Loop: Header=BB0_9 Depth=1
	.loc	1 0 4 is_stmt 0         # server.c:0:4
	leal	-68(%ebp), %eax
	.loc	1 127 35 is_stmt 1      # server.c:127:35
	leal	-48(%ebp), %ecx
	addl	$4, %ecx
	.loc	1 127 3 is_stmt 0       # server.c:127:3
	movl	$2, (%esp)
	movl	%ecx, 4(%esp)
	movl	%eax, 8(%esp)
	movl	$16, 12(%esp)
	calll	inet_ntop
	leal	-68(%ebp), %ecx
	.loc	1 128 41 is_stmt 1      # server.c:128:41
	movzwl	-46(%ebp), %edx
	movl	%edx, (%esp)
	movl	%eax, -108(%ebp)        # 4-byte Spill
	movl	%ecx, -112(%ebp)        # 4-byte Spill
	calll	ntohs
	movzwl	%ax, %ecx
	.loc	1 128 3 is_stmt 0       # server.c:128:3
	leal	.L.str.7, %edx
	movl	%edx, (%esp)
	movl	-112(%ebp), %edx        # 4-byte Reload
	movl	%edx, 4(%esp)
	movl	%ecx, 8(%esp)
	calll	printf
	.loc	1 129 49 is_stmt 1      # server.c:129:49
	movl	-16(%ebp), %ecx
	.loc	1 129 59 is_stmt 0      # server.c:129:59
	movl	-72(%ebp), %edx
	.loc	1 129 3                 # server.c:129:3
	leal	.L.str.8, %esi
	movl	%esi, (%esp)
	movl	%ecx, 4(%esp)
	movl	%edx, 8(%esp)
	movl	%eax, -116(%ebp)        # 4-byte Spill
	calll	printf
	.loc	1 130 11 is_stmt 1      # server.c:130:11
	movl	-72(%ebp), %ecx
	.loc	1 130 3 is_stmt 0       # server.c:130:3
	movl	%ecx, (%esp)
	movl	%eax, -120(%ebp)        # 4-byte Spill
	calll	service
.Ltmp23:
	.loc	1 117 2 is_stmt 1       # server.c:117:2
	movl	%eax, -124(%ebp)        # 4-byte Spill
	jmp	.LBB0_9
.Ltmp24:
.Lfunc_end0:
	.size	main, .Lfunc_end0-main
	.cfi_endproc
                                        # -- End function
	.p2align	4, 0x90         # -- Begin function do_error
	.type	do_error,@function
do_error:                               # @do_error
.Lfunc_begin1:
	.loc	1 29 0                  # server.c:29:0
	.cfi_startproc
	popl	-16777216(%esp)
	subl	$4, %esp
# %bb.0:
	pushl	%ebp
	.cfi_def_cfa_offset 8
	.cfi_offset %ebp, -8
	movl	%esp, %ebp
	.cfi_def_cfa_register %ebp
	subl	$8, %esp
	movl	8(%ebp), %eax
.Ltmp25:
	.loc	1 30 9 prologue_end     # server.c:30:9
	movl	8(%ebp), %ecx
	.loc	1 30 2 is_stmt 0        # server.c:30:2
	movl	%ecx, (%esp)
	movl	%eax, -4(%ebp)          # 4-byte Spill
	calll	perror
	.loc	1 31 2 is_stmt 1        # server.c:31:2
	movl	$1, (%esp)
	calll	exit
.Ltmp26:
.Lfunc_end1:
	.size	do_error, .Lfunc_end1-do_error
	.cfi_endproc
                                        # -- End function
	.p2align	4, 0x90         # -- Begin function service
	.type	service,@function
service:                                # @service
.Lfunc_begin2:
	.loc	1 58 0                  # server.c:58:0
	.cfi_startproc
	popl	-16777216(%esp)
	subl	$4, %esp
# %bb.0:
	pushl	%ebp
	.cfi_def_cfa_offset 8
	.cfi_offset %ebp, -8
	movl	%esp, %ebp
	.cfi_def_cfa_register %ebp
	subl	$56, %esp
	movl	8(%ebp), %eax
.Ltmp27:
	.loc	1 62 13 prologue_end    # server.c:62:13
	movl	%eax, -12(%ebp)         # 4-byte Spill
	calll	fork
	.loc	1 62 11 is_stmt 0       # server.c:62:11
	movl	%eax, -8(%ebp)
	.loc	1 62 21                 # server.c:62:21
	cmpl	$0, %eax
.Ltmp28:
	.loc	1 62 6                  # server.c:62:6
	jge	.LBB2_2
# %bb.1:
.Ltmp29:
	.loc	1 63 3 is_stmt 1        # server.c:63:3
	leal	.L.str.9, %eax
	movl	%eax, (%esp)
	calll	perror
	.loc	1 64 2                  # server.c:64:2
	jmp	.LBB2_10
.Ltmp30:
.LBB2_2:
	.loc	1 64 15 is_stmt 0       # server.c:64:15
	cmpl	$0, -8(%ebp)
.Ltmp31:
	.loc	1 64 11                 # server.c:64:11
	jne	.LBB2_8
# %bb.3:
.Ltmp32:
	.loc	1 65 25 is_stmt 1       # server.c:65:25
	movl	8(%ebp), %eax
	.loc	1 65 3 is_stmt 0        # server.c:65:3
	leal	.L.str.10, %ecx
	movl	%ecx, (%esp)
	movl	%eax, 4(%esp)
	calll	printf
	xorl	%ecx, %ecx
.Ltmp33:
	.loc	1 66 11 is_stmt 1       # server.c:66:11
	movl	8(%ebp), %edx
	.loc	1 66 6 is_stmt 0        # server.c:66:6
	movl	%edx, (%esp)
	movl	$0, 4(%esp)
	movl	%eax, -16(%ebp)         # 4-byte Spill
	movl	%ecx, -20(%ebp)         # 4-byte Spill
	calll	dup2
	.loc	1 66 30                 # server.c:66:30
	cmpl	$0, %eax
	.loc	1 66 46                 # server.c:66:46
	jne	.LBB2_6
# %bb.4:
	.loc	1 67 10 is_stmt 1       # server.c:67:10
	movl	8(%ebp), %eax
	.loc	1 67 5 is_stmt 0        # server.c:67:5
	movl	%eax, (%esp)
	movl	$1, 4(%esp)
	calll	dup2
	.loc	1 67 30                 # server.c:67:30
	cmpl	$1, %eax
	.loc	1 67 47                 # server.c:67:47
	jne	.LBB2_6
# %bb.5:
	.loc	1 68 11 is_stmt 1       # server.c:68:11
	movl	8(%ebp), %eax
	.loc	1 68 6 is_stmt 0        # server.c:68:6
	movl	%eax, (%esp)
	movl	$2, 4(%esp)
	calll	dup2
	.loc	1 68 31                 # server.c:68:31
	cmpl	$2, %eax
.Ltmp34:
	.loc	1 66 6 is_stmt 1        # server.c:66:6
	je	.LBB2_7
.LBB2_6:
.Ltmp35:
	.loc	1 69 4                  # server.c:69:4
	leal	.L.str.11, %eax
	movl	%eax, (%esp)
	calll	do_error
.Ltmp36:
.LBB2_7:
	.loc	1 71 9                  # server.c:71:9
	movl	8(%ebp), %eax
	.loc	1 71 3 is_stmt 0        # server.c:71:3
	movl	%eax, (%esp)
	calll	close
	.loc	1 72 3 is_stmt 1        # server.c:72:3
	movl	%eax, -24(%ebp)         # 4-byte Spill
	calll	do_request
	xorl	%eax, %eax
	.loc	1 74 3                  # server.c:74:3
	movl	$0, (%esp)
	movl	%eax, -28(%ebp)         # 4-byte Spill
	calll	exit
.Ltmp37:
.LBB2_8:
	.loc	1 77 3                  # server.c:77:3
	movl	$-1, (%esp)
	leal	-4(%ebp), %eax
	movl	%eax, 4(%esp)
	movl	$1, 8(%esp)
	calll	waitpid
	.loc	1 78 9                  # server.c:78:9
	movl	8(%ebp), %ecx
	.loc	1 78 3 is_stmt 0        # server.c:78:3
	movl	%ecx, (%esp)
	movl	%eax, -32(%ebp)         # 4-byte Spill
	calll	close
	movl	%eax, -36(%ebp)         # 4-byte Spill
.Ltmp38:
# %bb.9:
	.loc	1 0 3                   # server.c:0:3
	jmp	.LBB2_10
.LBB2_10:
	xorl	%eax, %eax
	.loc	1 80 2 is_stmt 1        # server.c:80:2
	addl	$56, %esp
	popl	%ebp
	.cfi_def_cfa %esp, 4
	addl	$4, %esp
	pushl	-16777216(%esp)
	retl
.Ltmp39:
.Lfunc_end2:
	.size	service, .Lfunc_end2-service
	.cfi_endproc
                                        # -- End function
	.p2align	4, 0x90         # -- Begin function do_request
	.type	do_request,@function
do_request:                             # @do_request
.Lfunc_begin3:
	.loc	1 47 0                  # server.c:47:0
	.cfi_startproc
	popl	-16777216(%esp)
	subl	$4, %esp
# %bb.0:
	pushl	%ebp
	.cfi_def_cfa_offset 8
	.cfi_offset %ebp, -8
	movl	%esp, %ebp
	.cfi_def_cfa_register %ebp
	subl	$8, %esp
.Ltmp40:
	.loc	1 48 2 prologue_end     # server.c:48:2
	jmp	.LBB3_1
.LBB3_1:                                # =>This Inner Loop Header: Depth=1
.Ltmp41:
	.loc	1 49 3                  # server.c:49:3
	calll	read_and_echo
.Ltmp42:
	.loc	1 50 6                  # server.c:50:6
	cmpl	$0, fptr
.Ltmp43:
	.loc	1 50 6 is_stmt 0        # server.c:50:6
	je	.LBB3_3
# %bb.2:                                #   in Loop: Header=BB3_1 Depth=1
.Ltmp44:
	.loc	1 53 4 is_stmt 1        # server.c:53:4
	leal	sbuf, %eax
	movl	%eax, (%esp)
	calll	*fptr
	movl	%eax, -4(%ebp)          # 4-byte Spill
.Ltmp45:
.LBB3_3:                                #   in Loop: Header=BB3_1 Depth=1
	.loc	1 48 2                  # server.c:48:2
	jmp	.LBB3_1
.Ltmp46:
.Lfunc_end3:
	.size	do_request, .Lfunc_end3-do_request
	.cfi_endproc
                                        # -- End function
	.p2align	4, 0x90         # -- Begin function read_and_echo
	.type	read_and_echo,@function
read_and_echo:                          # @read_and_echo
.Lfunc_begin4:
	.loc	1 38 0                  # server.c:38:0
	.cfi_startproc
	popl	-16777216(%esp)
	subl	$4, %esp
# %bb.0:
	pushl	%ebp
	.cfi_def_cfa_offset 8
	.cfi_offset %ebp, -8
	movl	%esp, %ebp
	.cfi_def_cfa_register %ebp
	subl	$1048, %esp             # imm = 0x418
	leal	-1024(%ebp), %eax
.Ltmp47:
	#DEBUG_VALUE: read_and_echo:buffer <- [$eax+0]
	.loc	1 41 2 prologue_end     # server.c:41:2
	movl	%eax, (%esp)
	calll	gets
.Ltmp48:
	.loc	1 0 2 is_stmt 0         # server.c:0:2
	leal	-1024(%ebp), %ecx
	.loc	1 42 2 is_stmt 1        # server.c:42:2
	movl	%ecx, (%esp)
	movl	%eax, -1028(%ebp)       # 4-byte Spill
	calll	printf
	.loc	1 43 2                  # server.c:43:2
	leal	.L.str.12, %ecx
	movl	%ecx, (%esp)
	movl	%eax, -1032(%ebp)       # 4-byte Spill
	calll	printf
	.loc	1 44 1                  # server.c:44:1
	movl	%eax, -1036(%ebp)       # 4-byte Spill
	addl	$1048, %esp             # imm = 0x418
	popl	%ebp
	.cfi_def_cfa %esp, 4
	addl	$4, %esp
	pushl	-16777216(%esp)
	retl
.Ltmp49:
.Lfunc_end4:
	.size	read_and_echo, .Lfunc_end4-read_and_echo
	.cfi_endproc
                                        # -- End function
	.type	.L.str,@object          # @.str
	.section	.rodata.str1.1,"aMS",@progbits,1
.L.str:
	.asciz	"Please enter:\t%s 8080 \n"
	.size	.L.str, 24

	.type	.L.str.1,@object        # @.str.1
.L.str.1:
	.asciz	"Server is running ...... \n"
	.size	.L.str.1, 27

	.type	.L.str.2,@object        # @.str.2
.L.str.2:
	.asciz	"%p %p\n"
	.size	.L.str.2, 7

	.type	sbuf,@object            # @sbuf
	.data
sbuf:
	.asciz	"0123456789012345678901234567890123456789"
	.size	sbuf, 41

	.type	fptr,@object            # @fptr
	.local	fptr
	.comm	fptr,4,4
	.type	.L.str.3,@object        # @.str.3
	.section	.rodata.str1.1,"aMS",@progbits,1
.L.str.3:
	.asciz	"Socket() failed"
	.size	.L.str.3, 16

	.type	.L.str.4,@object        # @.str.4
.L.str.4:
	.asciz	"bind() failed"
	.size	.L.str.4, 14

	.type	.L.str.5,@object        # @.str.5
.L.str.5:
	.asciz	"listen() failed"
	.size	.L.str.5, 16

	.type	.L.str.6,@object        # @.str.6
.L.str.6:
	.asciz	"accept() failed"
	.size	.L.str.6, 16

	.type	.L.str.7,@object        # @.str.7
.L.str.7:
	.asciz	"Hello: %s/%d\n"
	.size	.L.str.7, 14

	.type	.L.str.8,@object        # @.str.8
.L.str.8:
	.asciz	"serv_sock = %d , client_sock = %d \n"
	.size	.L.str.8, 36

	.type	.L.str.9,@object        # @.str.9
.L.str.9:
	.asciz	"fork error"
	.size	.L.str.9, 11

	.type	.L.str.10,@object       # @.str.10
.L.str.10:
	.asciz	"clfd = %d \n"
	.size	.L.str.10, 12

	.type	.L.str.11,@object       # @.str.11
.L.str.11:
	.asciz	"dup2 error"
	.size	.L.str.11, 11

	.type	.L.str.12,@object       # @.str.12
.L.str.12:
	.asciz	"\n"
	.size	.L.str.12, 2

	.file	7 "/home/barra/src/R4/echo" "/usr/include/bits/types.h"
	.file	8 "/home/barra/src/R4/echo" "/usr/include/unistd.h"
	.section	".note.GNU-stack","",@progbits
	.addrsig
	.addrsig_sym main
	.addrsig_sym printf
	.addrsig_sym atoi
	.addrsig_sym socket
	.addrsig_sym do_error
	.addrsig_sym memset
	.addrsig_sym htonl
	.addrsig_sym htons
	.addrsig_sym bind
	.addrsig_sym listen
	.addrsig_sym accept
	.addrsig_sym inet_ntop
	.addrsig_sym ntohs
	.addrsig_sym service
	.addrsig_sym perror
	.addrsig_sym exit
	.addrsig_sym fork
	.addrsig_sym dup2
	.addrsig_sym close
	.addrsig_sym do_request
	.addrsig_sym waitpid
	.addrsig_sym read_and_echo
	.addrsig_sym gets
	.addrsig_sym sbuf
	.addrsig_sym fptr